target datalayout = "e-m:e-p270:32:32-p271:32:32-p272:64:64-i64:64-i128:128-f80:128-n8:16:32:64-S128"
target triple = "x86_64-pc-linux-gnu"

@.str.2 = private unnamed_addr constant [2 x i8] c"w\00", align 1
@.str.3 = private unnamed_addr constant [4 x i8] c"/*\0A\00", align 1
@.str.4 = private unnamed_addr constant [45 x i8] c" * This file was autogenerated by OSQP on %s\00", align 1
@.str.5 = private unnamed_addr constant [5 x i8] c" * \0A\00", align 1
@.str.8 = private unnamed_addr constant [6 x i8] c" */\0A\0A\00", align 1
@.str.17 = private unnamed_addr constant [3 x i8] c"}\0A\00", align 1
@.str.37 = private unnamed_addr constant [11 x i8] c"%semosqp.c\00", align 1
@__func__.codegen_example = private unnamed_addr constant [16 x i8] c"codegen_example\00", align 1
@.str.38 = private unnamed_addr constant [65 x i8] c" * This file contains a sample solver to run the embedded code.\0A\00", align 1
@.str.39 = private unnamed_addr constant [20 x i8] c"#include <stdio.h>\0A\00", align 1
@.str.40 = private unnamed_addr constant [19 x i8] c"#include \22osqp.h\22\0A\00", align 1
@.str.41 = private unnamed_addr constant [27 x i8] c"#include \22%sworkspace.h\22\0A\0A\00", align 1
@.str.42 = private unnamed_addr constant [14 x i8] c"int main() {\0A\00", align 1
@.str.43 = private unnamed_addr constant [22 x i8] c"  OSQPInt exitflag;\0A\0A\00", align 1
@.str.44 = private unnamed_addr constant [60 x i8] c"  printf( \22Embedded test program for vector updates.\\n\22);\0A\0A\00", align 1
@.str.45 = private unnamed_addr constant [40 x i8] c"  exitflag = osqp_solve( &%ssolver );\0A\0A\00", align 1
@.str.46 = private unnamed_addr constant [24 x i8] c"  if( exitflag > 0 ) {\0A\00", align 1
@.str.47 = private unnamed_addr constant [69 x i8] c"    printf( \22  OSQP errored: %%s\\n\22, osqp_error_message(exitflag));\0A\00", align 1
@.str.48 = private unnamed_addr constant [27 x i8] c"    return (int)exitflag;\0A\00", align 1
@.str.49 = private unnamed_addr constant [12 x i8] c"  } else {\0A\00", align 1
@.str.50 = private unnamed_addr constant [54 x i8] c"    printf( \22  Solved workspace with no error.\\n\22 );\0A\00", align 1
@.str.51 = private unnamed_addr constant [5 x i8] c"  }\0A\00", align 1

; Function Attrs: nounwind uwtable
define i64 @codegen_example(ptr noundef %0, ptr noundef %1) #0 {
  %3 = alloca i64, align 8
  %4 = alloca ptr, align 8
  %5 = alloca ptr, align 8
  %6 = alloca [1024 x i8], align 16
  %7 = alloca ptr, align 8
  %8 = alloca i64, align 8
  store ptr %0, ptr %4, align 8
  store ptr %1, ptr %5, align 8
  %9 = getelementptr inbounds [1024 x i8], ptr %6, i64 0, i64 0
  %10 = load ptr, ptr %4, align 8
  %11 = call i32 (ptr, ptr, ...) @sprintf(ptr noundef %9, ptr noundef @.str.37, ptr noundef %10) #4
  %12 = getelementptr inbounds [1024 x i8], ptr %6, i64 0, i64 0
  %13 = call noalias ptr @fopen(ptr noundef %12, ptr noundef @.str.2)
  store ptr %13, ptr %7, align 8
  %14 = load ptr, ptr %7, align 8
  %15 = icmp eq ptr %14, null
  br i1 %15, label %16, label %18

16:                                               ; preds = %2
  %17 = call i64 @_osqp_error(i32 noundef 8, ptr noundef @__func__.codegen_example)
  store i64 %17, ptr %3, align 8
  br label %63

18:                                               ; preds = %2
  %19 = call i64 @time(ptr noundef %8) #4
  %20 = load ptr, ptr %7, align 8
  %21 = call i32 (ptr, ptr, ...) @fprintf(ptr noundef %20, ptr noundef @.str.3) #4
  %22 = load ptr, ptr %7, align 8
  %23 = call ptr @ctime(ptr noundef %8) #4
  %24 = call i32 (ptr, ptr, ...) @fprintf(ptr noundef %22, ptr noundef @.str.4, ptr noundef %23) #4
  %25 = load ptr, ptr %7, align 8
  %26 = call i32 (ptr, ptr, ...) @fprintf(ptr noundef %25, ptr noundef @.str.5) #4
  %27 = load ptr, ptr %7, align 8
  %28 = call i32 (ptr, ptr, ...) @fprintf(ptr noundef %27, ptr noundef @.str.38) #4
  %29 = load ptr, ptr %7, align 8
  %30 = call i32 (ptr, ptr, ...) @fprintf(ptr noundef %29, ptr noundef @.str.8) #4
  %31 = load ptr, ptr %7, align 8
  %32 = call i32 (ptr, ptr, ...) @fprintf(ptr noundef %31, ptr noundef @.str.39) #4
  %33 = load ptr, ptr %7, align 8
  %34 = call i32 (ptr, ptr, ...) @fprintf(ptr noundef %33, ptr noundef @.str.40) #4
  %35 = load ptr, ptr %7, align 8
  %36 = load ptr, ptr %5, align 8
  %37 = call i32 (ptr, ptr, ...) @fprintf(ptr noundef %35, ptr noundef @.str.41, ptr noundef %36) #4
  %38 = load ptr, ptr %7, align 8
  %39 = call i32 (ptr, ptr, ...) @fprintf(ptr noundef %38, ptr noundef @.str.42) #4
  %40 = load ptr, ptr %7, align 8
  %41 = call i32 (ptr, ptr, ...) @fprintf(ptr noundef %40, ptr noundef @.str.43) #4
  %42 = load ptr, ptr %7, align 8
  %43 = call i32 (ptr, ptr, ...) @fprintf(ptr noundef %42, ptr noundef @.str.44) #4
  %44 = load ptr, ptr %7, align 8
  %45 = load ptr, ptr %5, align 8
  %46 = call i32 (ptr, ptr, ...) @fprintf(ptr noundef %44, ptr noundef @.str.45, ptr noundef %45) #4
  %47 = load ptr, ptr %7, align 8
  %48 = call i32 (ptr, ptr, ...) @fprintf(ptr noundef %47, ptr noundef @.str.46) #4
  %49 = load ptr, ptr %7, align 8
  %50 = call i32 (ptr, ptr, ...) @fprintf(ptr noundef %49, ptr noundef @.str.47) #4
  %51 = load ptr, ptr %7, align 8
  %52 = call i32 (ptr, ptr, ...) @fprintf(ptr noundef %51, ptr noundef @.str.48) #4
  %53 = load ptr, ptr %7, align 8
  %54 = call i32 (ptr, ptr, ...) @fprintf(ptr noundef %53, ptr noundef @.str.49) #4
  %55 = load ptr, ptr %7, align 8
  %56 = call i32 (ptr, ptr, ...) @fprintf(ptr noundef %55, ptr noundef @.str.50) #4
  %57 = load ptr, ptr %7, align 8
  %58 = call i32 (ptr, ptr, ...) @fprintf(ptr noundef %57, ptr noundef @.str.51) #4
  %59 = load ptr, ptr %7, align 8
  %60 = call i32 (ptr, ptr, ...) @fprintf(ptr noundef %59, ptr noundef @.str.17) #4
  %61 = load ptr, ptr %7, align 8
  %62 = call i32 @fclose(ptr noundef %61)
  store i64 0, ptr %3, align 8
  br label %63

63:                                               ; preds = %18, %16
  %64 = load i64, ptr %3, align 8
  ret i64 %64
}