; Function Attrs: nounwind uwtable
define i64 @codegen_example(ptr noundef %0, ptr noundef %1) local_unnamed_addr #0 {
  %3 = alloca [1024 x i8], align 16
  %4 = alloca i64, align 8
  %5 = call i32 (ptr, ptr, ...) @sprintf(ptr noundef nonnull dereferenceable(1) %3, ptr noundef nonnull dereferenceable(1) @.str.37, ptr noundef %0) #8
  %6 = call noalias ptr @fopen(ptr noundef nonnull %3, ptr noundef nonnull @.str.2)
  %7 = icmp eq ptr %6, null
  br i1 %7, label %8, label %10

8:                                                ; preds = %2
  %9 = tail call i64 @_osqp_error(i32 noundef 8, ptr noundef nonnull @__func__.codegen_example) #8
  br label %33

10:                                               ; preds = %2
  %11 = call i64 @time(ptr noundef nonnull %4) #8
  %12 = call i64 @fwrite(ptr nonnull @.str.3, i64 3, i64 1, ptr nonnull %6)
  %13 = call ptr @ctime(ptr noundef nonnull %4) #8
  %14 = call i32 (ptr, ptr, ...) @fprintf(ptr noundef nonnull %6, ptr noundef nonnull @.str.4, ptr noundef %13) #8
  %15 = call i64 @fwrite(ptr nonnull @.str.5, i64 4, i64 1, ptr nonnull %6)
  %16 = call i64 @fwrite(ptr nonnull @.str.38, i64 64, i64 1, ptr nonnull %6)
  %17 = call i64 @fwrite(ptr nonnull @.str.8, i64 5, i64 1, ptr nonnull %6)
  %18 = call i64 @fwrite(ptr nonnull @.str.39, i64 19, i64 1, ptr nonnull %6)
  %19 = call i64 @fwrite(ptr nonnull @.str.40, i64 18, i64 1, ptr nonnull %6)
  %20 = call i32 (ptr, ptr, ...) @fprintf(ptr noundef nonnull %6, ptr noundef nonnull @.str.41, ptr noundef %1) #8
  %21 = call i64 @fwrite(ptr nonnull @.str.42, i64 13, i64 1, ptr nonnull %6)
  %22 = call i64 @fwrite(ptr nonnull @.str.43, i64 21, i64 1, ptr nonnull %6)
  %23 = call i64 @fwrite(ptr nonnull @.str.44, i64 59, i64 1, ptr nonnull %6)
  %24 = call i32 (ptr, ptr, ...) @fprintf(ptr noundef nonnull %6, ptr noundef nonnull @.str.45, ptr noundef %1) #8
  %25 = call i64 @fwrite(ptr nonnull @.str.46, i64 23, i64 1, ptr nonnull %6)
  %26 = call i32 (ptr, ptr, ...) @fprintf(ptr noundef nonnull %6, ptr noundef nonnull @.str.47) #8
  %27 = call i64 @fwrite(ptr nonnull @.str.48, i64 26, i64 1, ptr nonnull %6)
  %28 = call i64 @fwrite(ptr nonnull @.str.49, i64 11, i64 1, ptr nonnull %6)
  %29 = call i64 @fwrite(ptr nonnull @.str.50, i64 53, i64 1, ptr nonnull %6)
  %30 = call i64 @fwrite(ptr nonnull @.str.51, i64 4, i64 1, ptr nonnull %6)
  %31 = call i64 @fwrite(ptr nonnull @.str.17, i64 2, i64 1, ptr nonnull %6)
  %32 = call i32 @fclose(ptr noundef nonnull %6)
  br label %33

33:                                               ; preds = %10, %8
  %.0 = phi i64 [ %9, %8 ], [ 0, %10 ]
  ret i64 %.0
}